Certificate:
    Data:
        Version: 1 (0x0)
        Serial Number: 4096 (0x1000)
        Signature Algorithm: sha256WithRSAEncryption
        Issuer: C=FR, ST=Auvergne Rhone-Alpes, L=Lyon, O=Worldskills France, OU=Worldskills France Lyon 2024, CN=WSFR-EXT-ROOT-CA/emailAddress=npresso@wsl2024.org
        Validity
            Not Before: Dec 17 15:24:06 2024 GMT
            Not After : Dec 15 15:24:06 2034 GMT
        Subject: C=FR, ST=Ile de France, L=Paris, O=Worldskills France, OU=Worldskills France Paris 2024, CN=inetsrv.worldskills.org/emailAddress=inet-support@worldskills.org
        Subject Public Key Info:
            Public Key Algorithm: rsaEncryption
                Public-Key: (2048 bit)
                Modulus:
                    00:b1:8b:25:e4:8d:97:e7:59:02:71:79:f5:e2:f4:
                    23:24:11:c1:47:8c:05:c4:33:4b:8c:0d:3a:d5:8c:
                    32:31:26:59:fe:8c:15:d4:8b:9e:74:ba:f0:fd:c2:
                    b8:da:ea:f1:11:dd:06:ce:c7:6e:a9:9a:74:18:68:
                    51:b7:29:05:b2:6e:a4:f0:1d:2a:51:fe:c7:62:4f:
                    29:60:58:de:4f:5e:35:95:71:79:93:f2:da:92:8c:
                    d7:14:a2:0b:d4:fb:b0:1a:09:83:1f:a9:a8:23:ff:
                    b2:06:a0:84:d1:b0:18:07:96:a3:5d:3e:68:86:ed:
                    17:28:8a:66:36:68:c3:56:cd:de:f3:8d:fd:3e:7f:
                    a7:16:42:16:2d:9e:ec:c3:2d:83:98:dd:46:d5:d8:
                    9a:be:b2:ce:00:05:58:57:fa:50:29:b7:e5:83:98:
                    61:64:88:20:d4:87:e4:9b:ce:43:3c:e6:26:16:f5:
                    65:43:ed:48:06:20:f0:da:88:5b:e7:4b:0e:32:ed:
                    4e:a9:8f:dd:2f:15:6c:e3:84:10:5a:04:77:a4:4b:
                    32:e9:5e:24:17:94:09:87:f2:2c:55:18:19:3f:b4:
                    73:c4:54:25:fc:4d:8e:1d:a8:c8:00:71:4c:fe:88:
                    3f:f9:a8:ef:1a:50:d7:be:3d:de:c8:54:7d:16:d7:
                    10:f9
                Exponent: 65537 (0x10001)
    Signature Algorithm: sha256WithRSAEncryption
    Signature Value:
        24:99:b0:c6:5a:87:36:ff:93:d2:38:97:65:1d:b5:ff:7c:c6:
        42:b2:2d:89:22:5f:f4:09:b1:4b:af:25:40:cd:51:19:f2:9a:
        72:a1:17:96:6b:6a:82:2a:c7:ed:01:ce:9e:e0:7c:ef:f5:f5:
        a1:21:fe:64:59:21:0a:f8:c8:ed:32:2b:c6:b1:f5:5b:8b:41:
        ab:7c:4c:75:d7:f6:05:65:77:ed:34:0c:85:4a:60:73:cd:19:
        61:1a:74:1b:82:46:96:e0:6b:2d:66:08:bb:6a:a0:25:4f:43:
        d4:60:19:f0:bc:66:97:d7:02:1e:28:eb:91:e9:6d:58:48:84:
        31:f6:20:d1:88:68:14:d5:87:ac:ac:b9:0b:cc:27:75:54:a8:
        03:51:e5:e4:0d:c7:e4:62:b1:96:05:37:64:ec:e0:24:6b:0f:
        75:45:55:1c:74:fb:ec:da:2b:b9:db:4c:a6:78:17:71:30:08:
        f2:d7:d8:92:ce:03:09:3a:a7:e7:a7:0f:a4:3c:35:dd:7c:70:
        75:27:16:f9:a6:f3:9e:db:ac:f3:22:79:4a:e4:e3:93:56:4f:
        6b:01:07:82:de:1b:52:53:3e:b2:5e:b0:62:93:d3:f9:39:fc:
        7f:6c:a3:42:a6:a5:22:93:f9:e9:2e:a6:3e:27:a7:da:6a:6a:
        6f:ec:a7:78
-----BEGIN CERTIFICATE-----
MIID/jCCAuYCAhAAMA0GCSqGSIb3DQEBCwUAMIG+MQswCQYDVQQGEwJGUjEdMBsG
A1UECAwUQXV2ZXJnbmUgUmhvbmUtQWxwZXMxDTALBgNVBAcMBEx5b24xGzAZBgNV
BAoMEldvcmxkc2tpbGxzIEZyYW5jZTElMCMGA1UECwwcV29ybGRza2lsbHMgRnJh
bmNlIEx5b24gMjAyNDEZMBcGA1UEAwwQV1NGUi1FWFQtUk9PVC1DQTEiMCAGCSqG
SIb3DQEJARYTbnByZXNzb0B3c2wyMDI0Lm9yZzAeFw0yNDEyMTcxNTI0MDZaFw0z
NDEyMTUxNTI0MDZaMIHJMQswCQYDVQQGEwJGUjEWMBQGA1UECAwNSWxlIGRlIEZy
YW5jZTEOMAwGA1UEBwwFUGFyaXMxGzAZBgNVBAoMEldvcmxkc2tpbGxzIEZyYW5j
ZTEmMCQGA1UECwwdV29ybGRza2lsbHMgRnJhbmNlIFBhcmlzIDIwMjQxIDAeBgNV
BAMMF2luZXRzcnYud29ybGRza2lsbHMub3JnMSswKQYJKoZIhvcNAQkBFhxpbmV0
LXN1cHBvcnRAd29ybGRza2lsbHMub3JnMIIBIjANBgkqhkiG9w0BAQEFAAOCAQ8A
MIIBCgKCAQEAsYsl5I2X51kCcXn14vQjJBHBR4wFxDNLjA061YwyMSZZ/owV1Iue
dLrw/cK42urxEd0GzsduqZp0GGhRtykFsm6k8B0qUf7HYk8pYFjeT141lXF5k/La
kozXFKIL1PuwGgmDH6moI/+yBqCE0bAYB5ajXT5ohu0XKIpmNmjDVs3e8439Pn+n
FkIWLZ7swy2DmN1G1diavrLOAAVYV/pQKbflg5hhZIgg1Ifkm85DPOYmFvVlQ+1I
BiDw2ohb50sOMu1OqY/dLxVs44QQWgR3pEsy6V4kF5QJh/IsVRgZP7RzxFQl/E2O
HajIAHFM/og/+ajvGlDXvj3eyFR9FtcQ+QIDAQABMA0GCSqGSIb3DQEBCwUAA4IB
AQAkmbDGWoc2/5PSOJdlHbX/fMZCsi2JIl/0CbFLryVAzVEZ8ppyoReWa2qCKsft
Ac6e4Hzv9fWhIf5kWSEK+MjtMivGsfVbi0GrfEx11/YFZXftNAyFSmBzzRlhGnQb
gkaW4GstZgi7aqAlT0PUYBnwvGaX1wIeKOuR6W1YSIQx9iDRiGgU1YesrLkLzCd1
VKgDUeXkDcfkYrGWBTdk7OAkaw91RVUcdPvs2iu520ymeBdxMAjy19iSzgMJOqfn
pw+kPDXdfHB1Jxb5pvOe26zzInlK5OOTVk9rAQeC3htSUz6yXrBik9P5Ofx/bKNC
pqUik/npLqY+J6faampv7Kd4
-----END CERTIFICATE-----
